; Function Attrs: nounwind uwtable
define dso_local range(i32 0, 2) i32 @jq_yylex_init(ptr noundef captures(address_is_null) %0) local_unnamed_addr #0 {
  %2 = icmp eq ptr %0, null
  br i1 %2, label %3, label %5

3:                                                ; preds = %1
  %4 = tail call ptr @__errno_location() #19
  store i32 22, ptr %4, align 4, !tbaa !60
  br label %17

5:                                                ; preds = %1
  %6 = tail call ptr @jv_mem_alloc(i64 noundef 160) #17
  store ptr %6, ptr %0, align 8, !tbaa !72
  %7 = icmp eq ptr %6, null
  br i1 %7, label %8, label %10

8:                                                ; preds = %5
  %9 = tail call ptr @__errno_location() #19
  store i32 12, ptr %9, align 4, !tbaa !60
  br label %17

10:                                               ; preds = %5
  tail call void @llvm.memset.p0.i64(ptr noundef nonnull align 1 dereferenceable(160) %6, i8 0, i64 160, i1 false)
  %11 = load ptr, ptr %0, align 8, !tbaa !72
  %12 = getelementptr inbounds nuw i8, ptr %11, i64 64
  %13 = getelementptr inbounds nuw i8, ptr %11, i64 84
  store i32 0, ptr %13, align 4, !tbaa !63
  %14 = getelementptr inbounds nuw i8, ptr %11, i64 88
  store i32 0, ptr %14, align 8, !tbaa !64
  %15 = getelementptr inbounds nuw i8, ptr %11, i64 96
  store ptr null, ptr %15, align 8, !tbaa !65
  %16 = getelementptr inbounds nuw i8, ptr %11, i64 8
  tail call void @llvm.memset.p0.i64(ptr noundef nonnull align 8 dereferenceable(40) %16, i8 0, i64 40, i1 false)
  tail call void @llvm.memset.p0.i64(ptr noundef nonnull align 8 dereferenceable(16) %12, i8 0, i64 16, i1 false)
  br label %17

17:                                               ; preds = %10, %8, %3
  %.0 = phi i32 [ 1, %3 ], [ 1, %8 ], [ 0, %10 ]
  ret i32 %.0
}